target datalayout = "e-m:e-p270:32:32-p271:32:32-p272:64:64-i64:64-i128:128-f80:128-n8:16:32:64-S128"
target triple = "x86_64-pc-linux-gnu"

@.str.91 = private unnamed_addr constant [2 x i8] c"?\00", align 1
@.str.92 = private unnamed_addr constant [3 x i8] c"CG\00", align 1
@.str.93 = private unnamed_addr constant [3 x i8] c"SO\00", align 1
@.str.94 = private unnamed_addr constant [3 x i8] c"CF\00", align 1
@.str.95 = private unnamed_addr constant [3 x i8] c"RS\00", align 1
@.str.96 = private unnamed_addr constant [3 x i8] c"RQ\00", align 1
@.str.97 = private unnamed_addr constant [3 x i8] c"RF\00", align 1
@.str.98 = private unnamed_addr constant [3 x i8] c"RH\00", align 1
@.str.99 = private unnamed_addr constant [3 x i8] c"SE\00", align 1
@.str.100 = private unnamed_addr constant [3 x i8] c"ST\00", align 1
@.str.101 = private unnamed_addr constant [3 x i8] c"RV\00", align 1
@.str.102 = private unnamed_addr constant [3 x i8] c"RD\00", align 1
@.str.103 = private unnamed_addr constant [3 x i8] c"SI\00", align 1
@.str.104 = private unnamed_addr constant [3 x i8] c"PD\00", align 1
@.str.105 = private unnamed_addr constant [2 x i8] c"R\00", align 1
@.str.106 = private unnamed_addr constant [2 x i8] c"S\00", align 1
@.str.107 = private unnamed_addr constant [3 x i8] c"CD\00", align 1
@.str.108 = private unnamed_addr constant [3 x i8] c"CA\00", align 1
@.str.109 = private unnamed_addr constant [2 x i8] c"F\00", align 1
@.str.110 = private unnamed_addr constant [3 x i8] c"TO\00", align 1
@.str.111 = private unnamed_addr constant [3 x i8] c"NF\00", align 1
@.str.112 = private unnamed_addr constant [3 x i8] c"PR\00", align 1
@.str.113 = private unnamed_addr constant [3 x i8] c"BF\00", align 1
@.str.114 = private unnamed_addr constant [3 x i8] c"DL\00", align 1
@.str.115 = private unnamed_addr constant [4 x i8] c"OOM\00", align 1

; Function Attrs: nounwind uwtable
define dso_local ptr @job_state_string_compact(i32 noundef %0) #0 {
  %2 = alloca ptr, align 8
  %3 = alloca i32, align 4
  store i32 %0, ptr %3, align 4
  %4 = load i32, ptr %3, align 4
  %5 = zext i32 %4 to i64
  %6 = and i64 %5, 32768
  %7 = icmp ne i64 %6, 0
  br i1 %7, label %8, label %9

8:                                                ; preds = %1
  store ptr @.str.92, ptr %2, align 8
  br label %91

9:                                                ; preds = %1
  %10 = load i32, ptr %3, align 4
  %11 = zext i32 %10 to i64
  %12 = and i64 %11, 8388608
  %13 = icmp ne i64 %12, 0
  br i1 %13, label %14, label %15

14:                                               ; preds = %9
  store ptr @.str.93, ptr %2, align 8
  br label %91

15:                                               ; preds = %9
  %16 = load i32, ptr %3, align 4
  %17 = zext i32 %16 to i64
  %18 = and i64 %17, 16384
  %19 = icmp ne i64 %18, 0
  br i1 %19, label %20, label %21

20:                                               ; preds = %15
  store ptr @.str.94, ptr %2, align 8
  br label %91

21:                                               ; preds = %15
  %22 = load i32, ptr %3, align 4
  %23 = zext i32 %22 to i64
  %24 = and i64 %23, 8192
  %25 = icmp ne i64 %24, 0
  br i1 %25, label %26, label %27

26:                                               ; preds = %21
  store ptr @.str.95, ptr %2, align 8
  br label %91

27:                                               ; preds = %21
  %28 = load i32, ptr %3, align 4
  %29 = zext i32 %28 to i64
  %30 = and i64 %29, 1024
  %31 = icmp ne i64 %30, 0
  br i1 %31, label %32, label %33

32:                                               ; preds = %27
  store ptr @.str.96, ptr %2, align 8
  br label %91

33:                                               ; preds = %27
  %34 = load i32, ptr %3, align 4
  %35 = zext i32 %34 to i64
  %36 = and i64 %35, 1048576
  %37 = icmp ne i64 %36, 0
  br i1 %37, label %38, label %39

38:                                               ; preds = %33
  store ptr @.str.97, ptr %2, align 8
  br label %91

39:                                               ; preds = %33
  %40 = load i32, ptr %3, align 4
  %41 = zext i32 %40 to i64
  %42 = and i64 %41, 2048
  %43 = icmp ne i64 %42, 0
  br i1 %43, label %44, label %45

44:                                               ; preds = %39
  store ptr @.str.98, ptr %2, align 8
  br label %91

45:                                               ; preds = %39
  %46 = load i32, ptr %3, align 4
  %47 = zext i32 %46 to i64
  %48 = and i64 %47, 4096
  %49 = icmp ne i64 %48, 0
  br i1 %49, label %50, label %51

50:                                               ; preds = %45
  store ptr @.str.99, ptr %2, align 8
  br label %91

51:                                               ; preds = %45
  %52 = load i32, ptr %3, align 4
  %53 = zext i32 %52 to i64
  %54 = and i64 %53, 65536
  %55 = icmp ne i64 %54, 0
  br i1 %55, label %56, label %57

56:                                               ; preds = %51
  store ptr @.str.100, ptr %2, align 8
  br label %91

57:                                               ; preds = %51
  %58 = load i32, ptr %3, align 4
  %59 = zext i32 %58 to i64
  %60 = and i64 %59, 524288
  %61 = icmp ne i64 %60, 0
  br i1 %61, label %62, label %63

62:                                               ; preds = %57
  store ptr @.str.101, ptr %2, align 8
  br label %91

63:                                               ; preds = %57
  %64 = load i32, ptr %3, align 4
  %65 = zext i32 %64 to i64
  %66 = and i64 %65, 2097152
  %67 = icmp ne i64 %66, 0
  br i1 %67, label %68, label %69

68:                                               ; preds = %63
  store ptr @.str.102, ptr %2, align 8
  br label %91

69:                                               ; preds = %63
  %70 = load i32, ptr %3, align 4
  %71 = zext i32 %70 to i64
  %72 = and i64 %71, 4194304
  %73 = icmp ne i64 %72, 0
  br i1 %73, label %74, label %75

74:                                               ; preds = %69
  store ptr @.str.103, ptr %2, align 8
  br label %91

75:                                               ; preds = %69
  %76 = load i32, ptr %3, align 4
  %77 = and i32 %76, 255
  switch i32 %77, label %90 [
    i32 0, label %78
    i32 1, label %79
    i32 2, label %80
    i32 3, label %81
    i32 4, label %82
    i32 5, label %83
    i32 6, label %84
    i32 7, label %85
    i32 8, label %86
    i32 9, label %87
    i32 10, label %88
    i32 11, label %89
  ]

78:                                               ; preds = %75
  store ptr @.str.104, ptr %2, align 8
  br label %91

79:                                               ; preds = %75
  store ptr @.str.105, ptr %2, align 8
  br label %91

80:                                               ; preds = %75
  store ptr @.str.106, ptr %2, align 8
  br label %91

81:                                               ; preds = %75
  store ptr @.str.107, ptr %2, align 8
  br label %91

82:                                               ; preds = %75
  store ptr @.str.108, ptr %2, align 8
  br label %91

83:                                               ; preds = %75
  store ptr @.str.109, ptr %2, align 8
  br label %91

84:                                               ; preds = %75
  store ptr @.str.110, ptr %2, align 8
  br label %91

85:                                               ; preds = %75
  store ptr @.str.111, ptr %2, align 8
  br label %91

86:                                               ; preds = %75
  store ptr @.str.112, ptr %2, align 8
  br label %91

87:                                               ; preds = %75
  store ptr @.str.113, ptr %2, align 8
  br label %91

88:                                               ; preds = %75
  store ptr @.str.114, ptr %2, align 8
  br label %91

89:                                               ; preds = %75
  store ptr @.str.115, ptr %2, align 8
  br label %91

90:                                               ; preds = %75
  store ptr @.str.91, ptr %2, align 8
  br label %91

91:                                               ; preds = %90, %89, %88, %87, %86, %85, %84, %83, %82, %81, %80, %79, %78, %74, %68, %62, %56, %50, %44, %38, %32, %26, %20, %14, %8
  %92 = load ptr, ptr %2, align 8
  ret ptr %92
}