; Function Attrs: mustprogress nofree norecurse nosync nounwind willreturn memory(none) uwtable
define dso_local noundef nonnull ptr @job_state_string_compact(i32 noundef %0) #0 {
  %2 = zext i32 %0 to i64
  %3 = and i64 %2, 32768
  %.not = icmp eq i64 %3, 0
  br i1 %.not, label %4, label %29

4:                                                ; preds = %1
  %5 = and i64 %2, 8388608
  %.not13 = icmp eq i64 %5, 0
  br i1 %.not13, label %6, label %29

6:                                                ; preds = %4
  %7 = and i64 %2, 16384
  %.not14 = icmp eq i64 %7, 0
  br i1 %.not14, label %8, label %29

8:                                                ; preds = %6
  %9 = and i64 %2, 8192
  %.not15 = icmp eq i64 %9, 0
  br i1 %.not15, label %10, label %29

10:                                               ; preds = %8
  %11 = and i64 %2, 1024
  %.not16 = icmp eq i64 %11, 0
  br i1 %.not16, label %12, label %29

12:                                               ; preds = %10
  %13 = and i64 %2, 1048576
  %.not17 = icmp eq i64 %13, 0
  br i1 %.not17, label %14, label %29

14:                                               ; preds = %12
  %15 = and i64 %2, 2048
  %.not18 = icmp eq i64 %15, 0
  br i1 %.not18, label %16, label %29

16:                                               ; preds = %14
  %17 = and i64 %2, 4096
  %.not19 = icmp eq i64 %17, 0
  br i1 %.not19, label %18, label %29

18:                                               ; preds = %16
  %19 = and i64 %2, 65536
  %.not20 = icmp eq i64 %19, 0
  br i1 %.not20, label %20, label %29

20:                                               ; preds = %18
  %21 = and i64 %2, 524288
  %.not21 = icmp eq i64 %21, 0
  br i1 %.not21, label %22, label %29

22:                                               ; preds = %20
  %23 = and i64 %2, 2097152
  %.not22 = icmp eq i64 %23, 0
  br i1 %.not22, label %24, label %29

24:                                               ; preds = %22
  %25 = and i64 %2, 4194304
  %.not23 = icmp eq i64 %25, 0
  br i1 %.not23, label %26, label %29

26:                                               ; preds = %24
  %trunc = trunc i32 %0 to i8
  %27 = icmp ult i8 %trunc, 12
  br i1 %27, label %switch.lookup, label %29

switch.lookup:                                    ; preds = %26
  %trunc.mask = and i32 %0, 15
  %28 = zext nneg i32 %trunc.mask to i64
  %switch.gep = getelementptr inbounds nuw [12 x ptr], ptr @switch.table._job_name_test.1, i64 0, i64 %28
  %switch.load = load ptr, ptr %switch.gep, align 8
  br label %29

29:                                               ; preds = %26, %switch.lookup, %24, %22, %20, %18, %16, %14, %12, %10, %8, %6, %4, %1
  %.0 = phi ptr [ @.str.92, %1 ], [ @.str.93, %4 ], [ @.str.94, %6 ], [ @.str.95, %8 ], [ @.str.96, %10 ], [ @.str.97, %12 ], [ @.str.98, %14 ], [ @.str.99, %16 ], [ @.str.100, %18 ], [ @.str.101, %20 ], [ @.str.102, %22 ], [ @.str.103, %24 ], [ %switch.load, %switch.lookup ], [ @.str.91, %26 ]
  ret ptr %.0
}